	.text
	.syntax unified
	.eabi_attribute	67, "2.09"	@ Tag_conformance
	.cpu	cortex-m4
	.eabi_attribute	6, 13	@ Tag_CPU_arch
	.eabi_attribute	7, 77	@ Tag_CPU_arch_profile
	.eabi_attribute	8, 0	@ Tag_ARM_ISA_use
	.eabi_attribute	9, 2	@ Tag_THUMB_ISA_use
	.fpu	fpv4-sp-d16
	.eabi_attribute	27, 1	@ Tag_ABI_HardFP_use
	.eabi_attribute	36, 1	@ Tag_FP_HP_extension
	.eabi_attribute	34, 1	@ Tag_CPU_unaligned_access
	.eabi_attribute	17, 1	@ Tag_ABI_PCS_GOT_use
	.eabi_attribute	20, 1	@ Tag_ABI_FP_denormal
	.eabi_attribute	21, 1	@ Tag_ABI_FP_exceptions
	.eabi_attribute	23, 3	@ Tag_ABI_FP_number_model
	.eabi_attribute	24, 1	@ Tag_ABI_align_needed
	.eabi_attribute	25, 1	@ Tag_ABI_align_preserved
	.eabi_attribute	38, 1	@ Tag_ABI_FP_16bit_format
	.eabi_attribute	18, 4	@ Tag_ABI_PCS_wchar_t
	.eabi_attribute	14, 0	@ Tag_ABI_PCS_R9_use
	.file	"get_sign.c"
	.globl	get_sign                        @ -- Begin function get_sign
	.p2align	2
	.type	get_sign,%function
	.code	32                              @ @get_sign
get_sign:
.Lfunc_begin0:
	.file	1 "/home/isak/Documents/xj/klee-fork/klee/examples/get_sign" "get_sign.c"
	.loc	1 7 0                           @ get_sign.c:7:0
	.fnstart
	.cfi_sections .debug_frame
	.cfi_startproc
@ %bb.0:
	.pad	#8
	sub	sp, sp, #8
	.cfi_def_cfa_offset 8
.Ltmp0:
	.loc	1 8 7 prologue_end              @ get_sign.c:8:7
	cmp	r0, #0
	str	r0, [sp]
	beq	.LBB0_2
@ %bb.1:
.Ltmp1:
	.loc	1 11 7                          @ get_sign.c:11:7
	ldr	r0, [sp]
.Ltmp2:
	.loc	1 11 7 is_stmt 0                @ get_sign.c:11:7
	cmn	r0, #1
	movgt	r0, #1
	mvnle	r0, #0
	b	.LBB0_3
.LBB0_2:
	.loc	1 0 7                           @ get_sign.c:0:7
	mov	r0, #0
.LBB0_3:
	str	r0, [sp, #4]
	.loc	1 15 1 is_stmt 1                @ get_sign.c:15:1
	ldr	r0, [sp, #4]
	add	sp, sp, #8
	mov	pc, lr
.Ltmp3:
.Lfunc_end0:
	.size	get_sign, .Lfunc_end0-get_sign
	.cfi_endproc
	.fnend
                                        @ -- End function
	.globl	main                            @ -- Begin function main
	.p2align	2
	.type	main,%function
	.code	32                              @ @main
main:
.Lfunc_begin1:
	.loc	1 17 0                          @ get_sign.c:17:0
	.fnstart
	.cfi_startproc
@ %bb.0:
	.save	{r11, lr}
	push	{r11, lr}
	.cfi_def_cfa_offset 8
	.cfi_offset lr, -4
	.cfi_offset r11, -8
	.setfp	r11, sp
	mov	r11, sp
	.cfi_def_cfa_register r11
	.pad	#16
	sub	sp, sp, #16
	mov	r0, #0
.Ltmp4:
	.loc	1 19 3 prologue_end             @ get_sign.c:19:3
	mov	r2, #4
	mov	r3, #0
	str	r0, [r11, #-4]
	ldr	r0, .LCPI1_0
	str	r0, [sp]
	add	r0, sp, #8
	bl	klee_make_symbolic
	.loc	1 20 19                         @ get_sign.c:20:19
	ldr	r0, [sp, #8]
	.loc	1 20 10 is_stmt 0               @ get_sign.c:20:10
	bl	get_sign
	.loc	1 20 3                          @ get_sign.c:20:3
	mov	sp, r11
	pop	{r11, lr}
	mov	pc, lr
.Ltmp5:
	.p2align	2
@ %bb.1:
	.loc	1 0 3                           @ get_sign.c:0:3
.LCPI1_0:
	.long	.L.str
.Lfunc_end1:
	.size	main, .Lfunc_end1-main
	.cfi_endproc
	.fnend
                                        @ -- End function
	.type	.L.str,%object                  @ @.str
	.section	.rodata.str1.1,"aMS",%progbits,1
.L.str:
	.asciz	"a"
	.size	.L.str, 2

	.section	".note.GNU-stack","",%progbits
	.eabi_attribute	30, 1	@ Tag_ABI_optimization_goals