	.text
	.syntax unified
	.eabi_attribute	67, "2.09"	@ Tag_conformance
	.cpu	cortex-m4
	.eabi_attribute	6, 13	@ Tag_CPU_arch
	.eabi_attribute	7, 77	@ Tag_CPU_arch_profile
	.eabi_attribute	8, 0	@ Tag_ARM_ISA_use
	.eabi_attribute	9, 2	@ Tag_THUMB_ISA_use
	.fpu	fpv4-sp-d16
	.eabi_attribute	27, 1	@ Tag_ABI_HardFP_use
	.eabi_attribute	36, 1	@ Tag_FP_HP_extension
	.eabi_attribute	34, 1	@ Tag_CPU_unaligned_access
	.eabi_attribute	17, 1	@ Tag_ABI_PCS_GOT_use
	.eabi_attribute	20, 1	@ Tag_ABI_FP_denormal
	.eabi_attribute	21, 1	@ Tag_ABI_FP_exceptions
	.eabi_attribute	23, 3	@ Tag_ABI_FP_number_model
	.eabi_attribute	24, 1	@ Tag_ABI_align_needed
	.eabi_attribute	25, 1	@ Tag_ABI_align_preserved
	.eabi_attribute	38, 1	@ Tag_ABI_FP_16bit_format
	.eabi_attribute	18, 4	@ Tag_ABI_PCS_wchar_t
	.eabi_attribute	14, 0	@ Tag_ABI_PCS_R9_use
	.file	"sort.c"
	.p2align	2                               @ -- Begin function bubble_sort
	.type	bubble_sort,%function
	.code	32                              @ @bubble_sort
bubble_sort:
.Lfunc_begin0:
	.file	1 "/home/isak/Documents/xj/klee-fork/klee/examples/sort" "sort.c"
	.loc	1 21 0                          @ sort.c:21:0
	.fnstart
	.cfi_sections .debug_frame
	.cfi_startproc
@ %bb.0:                                @ %.lr.ph
	@DEBUG_VALUE: bubble_sort:array <- $r0
	@DEBUG_VALUE: bubble_sort:nelem <- 4
	.save	{r11, lr}
	push	{r11, lr}
	.cfi_def_cfa_offset 8
	.cfi_offset lr, -4
	.cfi_offset r11, -8
	.setfp	r11, sp
	mov	r11, sp
	.cfi_def_cfa_register r11
.Ltmp0:
	@DEBUG_VALUE: done <- 1
	@DEBUG_VALUE: i <- 0
	.loc	1 26 24 prologue_end            @ sort.c:26:24
	ldr	r12, [r0]
	mov	r3, #0
	mov	lr, #0
	b	.LBB0_3
.Ltmp1:
.LBB0_1:                                @   in Loop: Header=BB0_3 Depth=1
	@DEBUG_VALUE: i <- [DW_OP_LLVM_fragment 0 32] $r3
	@DEBUG_VALUE: bubble_sort:nelem <- 4
	@DEBUG_VALUE: bubble_sort:array <- $r0
	@DEBUG_VALUE: t <- $r2
	.loc	1 28 24                         @ sort.c:28:24
	ldr	r12, [r0, r3, lsl #2]
	.loc	1 28 22 is_stmt 0               @ sort.c:28:22
	str	r12, [r0, r1, lsl #2]
	.loc	1 29 18 is_stmt 1               @ sort.c:29:18
	str	r2, [r0, r3, lsl #2]
.Ltmp2:
	@DEBUG_VALUE: done <- 0
.LBB0_2:                                @   in Loop: Header=BB0_3 Depth=1
	@DEBUG_VALUE: i <- [DW_OP_LLVM_fragment 0 32] $r3
	@DEBUG_VALUE: bubble_sort:nelem <- 4
	@DEBUG_VALUE: bubble_sort:array <- $r0
	@DEBUG_VALUE: i <- [DW_OP_LLVM_fragment 0 32] $r1
	.loc	1 25 32                         @ sort.c:25:32
	eor	r2, r1, #3
	mov	r3, r1
.Ltmp3:
	@DEBUG_VALUE: i <- [DW_OP_LLVM_fragment 0 32] $r3
	orrs	r2, r2, lr
.Ltmp4:
	.loc	1 36 1                          @ sort.c:36:1
	popeq	{r11, lr}
	moveq	pc, lr
.Ltmp5:
.LBB0_3:                                @ =>This Inner Loop Header: Depth=1
	@DEBUG_VALUE: bubble_sort:nelem <- 4
	@DEBUG_VALUE: bubble_sort:array <- $r0
	@DEBUG_VALUE: i <- [DW_OP_LLVM_fragment 0 32] $r3
	.loc	1 25 41                         @ sort.c:25:41
	adds	r1, r3, #1
.Ltmp6:
	.loc	1 26 11                         @ sort.c:26:11
	ldr	r2, [r0, r1, lsl #2]
.Ltmp7:
	.loc	1 25 41                         @ sort.c:25:41
	adc	lr, lr, #0
.Ltmp8:
	.loc	1 26 11                         @ sort.c:26:11
	cmp	r2, r12
	blt	.LBB0_1
.Ltmp9:
@ %bb.4:                                @   in Loop: Header=BB0_3 Depth=1
	@DEBUG_VALUE: i <- [DW_OP_LLVM_fragment 0 32] $r3
	@DEBUG_VALUE: bubble_sort:nelem <- 4
	@DEBUG_VALUE: bubble_sort:array <- $r0
	.loc	1 0 11 is_stmt 0                @ sort.c:0:11
	mov	r12, r2
	b	.LBB0_2
.Lfunc_end0:
	.size	bubble_sort, .Lfunc_end0-bubble_sort
	.cfi_endproc
	.fnend
                                        @ -- End function
	.p2align	2                               @ -- Begin function insertion_sort
	.type	insertion_sort,%function
	.code	32                              @ @insertion_sort
insertion_sort:
.Lfunc_begin1:
	.loc	1 38 0 is_stmt 1                @ sort.c:38:0
	.fnstart
	.cfi_startproc
@ %bb.0:
	@DEBUG_VALUE: insertion_sort:array <- $r0
	.save	{r4, r5, r6, r7, r11, lr}
	push	{r4, r5, r6, r7, r11, lr}
	.cfi_def_cfa_offset 24
	.cfi_offset lr, -4
	.cfi_offset r11, -8
	.cfi_offset r7, -12
	.cfi_offset r6, -16
	.cfi_offset r5, -20
	.cfi_offset r4, -24
	.setfp	r11, sp, #16
	add	r11, sp, #16
	.cfi_def_cfa r11, 8
	mov	r4, r0
.Ltmp10:
	@DEBUG_VALUE: insertion_sort:array <- $r4
	@DEBUG_VALUE: insertion_sort:nelem <- 4
	@DEBUG_VALUE: insertion_sort:array <- $r4
	.loc	1 39 15 prologue_end            @ sort.c:39:15
	mov	r0, #16
	mov	r1, #0
	mov	r6, #0
	bl	malloc
	mov	r5, r0
	@DEBUG_VALUE: i <- 0
.Ltmp11:
	@DEBUG_VALUE: insertion_sort:temp <- $r5
	.loc	1 0 15 is_stmt 0                @ sort.c:0:15
	mov	r7, #0
.Ltmp12:
.LBB1_1:                                @ %.lr.ph
                                        @ =>This Inner Loop Header: Depth=1
	@DEBUG_VALUE: insertion_sort:temp <- $r5
	@DEBUG_VALUE: insertion_sort:nelem <- 4
	@DEBUG_VALUE: insertion_sort:array <- $r4
	@DEBUG_VALUE: i <- [DW_OP_LLVM_fragment 0 32] $r6
	.loc	1 42 29 is_stmt 1               @ sort.c:42:29
	ldr	r2, [r4, r6, lsl #2]
	.loc	1 42 5 is_stmt 0                @ sort.c:42:5
	mov	r0, r5
	mov	r1, r6
	bl	insert_ordered
	.loc	1 41 36 is_stmt 1               @ sort.c:41:36
	adds	r6, r6, #1
.Ltmp13:
	@DEBUG_VALUE: i <- [DW_OP_LLVM_fragment 0 32] $r6
	adc	r7, r7, #0
.Ltmp14:
	@DEBUG_VALUE: i <- [DW_OP_LLVM_fragment 32 32] $r7
	.loc	1 41 26 is_stmt 0               @ sort.c:41:26
	eor	r0, r6, #4
	orrs	r0, r0, r7
.Ltmp15:
	.loc	1 41 3                          @ sort.c:41:3
	bne	.LBB1_1
.Ltmp16:
@ %bb.2:                                @ %._crit_edge
	@DEBUG_VALUE: insertion_sort:temp <- $r5
	@DEBUG_VALUE: insertion_sort:nelem <- 4
	@DEBUG_VALUE: insertion_sort:array <- $r4
	.loc	1 44 3 is_stmt 1                @ sort.c:44:3
	mov	r0, r4
	mov	r1, r5
	mov	r2, #16
	mov	r3, #0
	bl	memcpy
	.loc	1 45 3                          @ sort.c:45:3
	mov	r0, r5
	pop	{r4, r5, r6, r7, r11, lr}
.Ltmp17:
	b	free
.Ltmp18:
.Lfunc_end1:
	.size	insertion_sort, .Lfunc_end1-insertion_sort
	.cfi_endproc
	.fnend
                                        @ -- End function
	.p2align	2                               @ -- Begin function insert_ordered
	.type	insert_ordered,%function
	.code	32                              @ @insert_ordered
insert_ordered:
.Lfunc_begin2:
	.loc	1 8 0                           @ sort.c:8:0
	.fnstart
	.cfi_startproc
@ %bb.0:
	@DEBUG_VALUE: insert_ordered:array <- $r0
	@DEBUG_VALUE: insert_ordered:nelem <- $r1
	@DEBUG_VALUE: insert_ordered:item <- $r2
	.save	{r4, r5, r6, r7, r11, lr}
	push	{r4, r5, r6, r7, r11, lr}
	.cfi_def_cfa_offset 24
	.cfi_offset lr, -4
	.cfi_offset r11, -8
	.cfi_offset r7, -12
	.cfi_offset r6, -16
	.cfi_offset r5, -20
	.cfi_offset r4, -24
	.setfp	r11, sp, #16
	add	r11, sp, #16
	.cfi_def_cfa r11, 8
	mov	r4, r2
.Ltmp19:
	@DEBUG_VALUE: insert_ordered:item <- $r4
	@DEBUG_VALUE: insert_ordered:item <- $r4
	mov	r6, r0
.Ltmp20:
	@DEBUG_VALUE: insert_ordered:array <- $r6
	@DEBUG_VALUE: insert_ordered:i <- 0
	@DEBUG_VALUE: insert_ordered:array <- $r6
	mov	r7, #0
.Ltmp21:
	.loc	1 11 3 prologue_end             @ sort.c:11:3
	cmp	r1, #0
	beq	.LBB2_5
.Ltmp22:
.LBB2_1:                                @ %.lr.ph
                                        @ =>This Inner Loop Header: Depth=1
	@DEBUG_VALUE: insert_ordered:array <- $r6
	@DEBUG_VALUE: insert_ordered:item <- $r4
	@DEBUG_VALUE: insert_ordered:nelem <- $r1
	@DEBUG_VALUE: insert_ordered:i <- $r7
	.loc	1 12 16                         @ sort.c:12:16
	mov	r5, r6
	ldr	r0, [r5, r7, lsl #2]!
.Ltmp23:
	.loc	1 12 9 is_stmt 0                @ sort.c:12:9
	cmp	r0, r4
	bgt	.LBB2_4
.Ltmp24:
@ %bb.2:                                @   in Loop: Header=BB2_1 Depth=1
	@DEBUG_VALUE: insert_ordered:i <- $r7
	@DEBUG_VALUE: insert_ordered:array <- $r6
	@DEBUG_VALUE: insert_ordered:item <- $r4
	@DEBUG_VALUE: insert_ordered:nelem <- $r1
	.loc	1 11 22 is_stmt 1               @ sort.c:11:22
	add	r7, r7, #1
.Ltmp25:
	@DEBUG_VALUE: insert_ordered:i <- $r7
	.loc	1 11 3 is_stmt 0                @ sort.c:11:3
	cmp	r1, r7
	bne	.LBB2_1
.Ltmp26:
@ %bb.3:                                @ %..loopexit_crit_edge
	@DEBUG_VALUE: insert_ordered:i <- $r7
	@DEBUG_VALUE: insert_ordered:array <- $r6
	@DEBUG_VALUE: insert_ordered:item <- $r4
	@DEBUG_VALUE: insert_ordered:nelem <- $r1
	.loc	1 0 3                           @ sort.c:0:3
	mov	r7, r1
.Ltmp27:
	@DEBUG_VALUE: insert_ordered:nelem <- $r7
	b	.LBB2_5
.Ltmp28:
.LBB2_4:
	@DEBUG_VALUE: insert_ordered:i <- $r7
	@DEBUG_VALUE: insert_ordered:array <- $r6
	@DEBUG_VALUE: insert_ordered:item <- $r4
	@DEBUG_VALUE: insert_ordered:nelem <- $r1
	.loc	1 13 16 is_stmt 1               @ sort.c:13:16
	add	r0, r6, r7, lsl #2
	.loc	1 13 63 is_stmt 0               @ sort.c:13:63
	sub	r1, r1, r7
.Ltmp29:
	@DEBUG_VALUE: insert_ordered:nelem <- [DW_OP_LLVM_entry_value 1] $r1
	.loc	1 13 16                         @ sort.c:13:16
	add	r0, r0, #4
	.loc	1 13 54                         @ sort.c:13:54
	lsl	r2, r1, #2
	lsr	r3, r1, #30
	.loc	1 13 7                          @ sort.c:13:7
	mov	r1, r5
	bl	memmove
.Ltmp30:
.LBB2_5:                                @ %.loopexit
	@DEBUG_VALUE: insert_ordered:array <- $r6
	@DEBUG_VALUE: insert_ordered:item <- $r4
	.loc	1 18 12 is_stmt 1               @ sort.c:18:12
	str	r4, [r6, r7, lsl #2]
	.loc	1 19 1                          @ sort.c:19:1
	pop	{r4, r5, r6, r7, r11, lr}
.Ltmp31:
	@DEBUG_VALUE: insert_ordered:item <- [DW_OP_LLVM_entry_value 1] $r2
	mov	pc, lr
.Ltmp32:
.Lfunc_end2:
	.size	insert_ordered, .Lfunc_end2-insert_ordered
	.cfi_endproc
	.fnend
                                        @ -- End function
	.p2align	2                               @ -- Begin function test
	.type	test,%function
	.code	32                              @ @test
test:
.Lfunc_begin3:
	.loc	1 48 0                          @ sort.c:48:0
	.fnstart
	.cfi_startproc
@ %bb.0:
	@DEBUG_VALUE: test:array <- $r0
	.save	{r4, r5, r6, r7, r11, lr}
	push	{r4, r5, r6, r7, r11, lr}
	.cfi_def_cfa_offset 24
	.cfi_offset lr, -4
	.cfi_offset r11, -8
	.cfi_offset r7, -12
	.cfi_offset r6, -16
	.cfi_offset r5, -20
	.cfi_offset r4, -24
	.setfp	r11, sp, #16
	add	r11, sp, #16
	.cfi_def_cfa r11, 8
	.pad	#8
	sub	sp, sp, #8
	mov	r6, r0
.Ltmp33:
	@DEBUG_VALUE: test:array <- $r6
	@DEBUG_VALUE: test:nelem <- 4
	@DEBUG_VALUE: test:array <- $r6
	.loc	1 49 16 prologue_end            @ sort.c:49:16
	mov	r0, #16
	mov	r1, #0
	bl	malloc
	mov	r4, r0
.Ltmp34:
	@DEBUG_VALUE: test:temp1 <- $r4
	.loc	1 50 16                         @ sort.c:50:16
	mov	r0, #16
	mov	r1, #0
	bl	malloc
	mov	r5, r0
.Ltmp35:
	@DEBUG_VALUE: test:temp2 <- $r5
	.loc	1 53 40                         @ sort.c:53:40
	ldr	r0, [r6, #12]
	.loc	1 53 10 is_stmt 0               @ sort.c:53:10
	ldm	r6, {r1, r2, r3}
	.loc	1 52 3 is_stmt 1                @ sort.c:52:3
	str	r0, [sp]
	ldr	r0, .LCPI3_0
	bl	printf
	.loc	1 55 3                          @ sort.c:55:3
	mov	r0, r4
	mov	r1, r6
	mov	r2, #16
	mov	r3, #0
	bl	memcpy
	.loc	1 56 3                          @ sort.c:56:3
	mov	r0, r5
	mov	r1, r6
	mov	r2, #16
	mov	r3, #0
	bl	memcpy
	.loc	1 58 3                          @ sort.c:58:3
	mov	r0, r4
	bl	insertion_sort
	.loc	1 59 3                          @ sort.c:59:3
	mov	r0, r5
	bl	bubble_sort
	.loc	1 62 40                         @ sort.c:62:40
	ldr	r0, [r4, #12]
	.loc	1 62 10 is_stmt 0               @ sort.c:62:10
	ldr	r6, [r4]
.Ltmp36:
	.loc	1 62 20                         @ sort.c:62:20
	ldmib	r4, {r2, r3}
	.loc	1 61 3 is_stmt 1                @ sort.c:61:3
	str	r0, [sp]
	ldr	r0, .LCPI3_1
	mov	r1, r6
	bl	printf
	.loc	1 65 40                         @ sort.c:65:40
	ldr	r0, [r5, #12]
	.loc	1 65 10 is_stmt 0               @ sort.c:65:10
	ldr	r7, [r5]
	.loc	1 65 20                         @ sort.c:65:20
	ldmib	r5, {r2, r3}
	.loc	1 64 3 is_stmt 1                @ sort.c:64:3
	str	r0, [sp]
	ldr	r0, .LCPI3_2
	mov	r1, r7
	bl	printf
	mov	r0, #1
	@DEBUG_VALUE: i <- 0
.Ltmp37:
	@DEBUG_VALUE: i <- [DW_OP_consts 1, DW_OP_minus, DW_OP_consts 1, DW_OP_plus, DW_OP_stack_value] $r0
	.loc	1 68 5                          @ sort.c:68:5
	cmp	r6, r7
	bne	.LBB3_3
.Ltmp38:
.LBB3_1:                                @ =>This Inner Loop Header: Depth=1
	@DEBUG_VALUE: i <- [DW_OP_consts 1, DW_OP_minus, DW_OP_consts 1, DW_OP_plus, DW_OP_stack_value] $r0
	@DEBUG_VALUE: test:temp2 <- $r5
	@DEBUG_VALUE: test:temp1 <- $r4
	@DEBUG_VALUE: test:nelem <- 4
	@DEBUG_VALUE: i <- [DW_OP_consts 1, DW_OP_minus, DW_OP_consts 1, DW_OP_plus, DW_OP_stack_value] $r0
	.loc	1 67 3                          @ sort.c:67:3
	cmp	r0, #4
	beq	.LBB3_4
.Ltmp39:
@ %bb.2:                                @ %._crit_edge3
                                        @   in Loop: Header=BB3_1 Depth=1
	@DEBUG_VALUE: i <- [DW_OP_consts 1, DW_OP_minus, DW_OP_consts 1, DW_OP_plus, DW_OP_stack_value] $r0
	@DEBUG_VALUE: test:temp2 <- $r5
	@DEBUG_VALUE: test:temp1 <- $r4
	@DEBUG_VALUE: test:nelem <- 4
	.loc	1 68 5                          @ sort.c:68:5
	ldr	r7, [r5, r0, lsl #2]
	ldr	r6, [r4, r0, lsl #2]
.Ltmp40:
	.loc	1 67 3                          @ sort.c:67:3
	add	r0, r0, #1
.Ltmp41:
	@DEBUG_VALUE: i <- [DW_OP_consts 1, DW_OP_minus, DW_OP_consts 1, DW_OP_plus, DW_OP_stack_value] $r0
	.loc	1 68 5                          @ sort.c:68:5
	cmp	r6, r7
	beq	.LBB3_1
.Ltmp42:
.LBB3_3:
	@DEBUG_VALUE: i <- [DW_OP_consts 1, DW_OP_minus, DW_OP_consts 1, DW_OP_plus, DW_OP_stack_value] $r0
	@DEBUG_VALUE: test:temp2 <- $r5
	@DEBUG_VALUE: test:temp1 <- $r4
	@DEBUG_VALUE: test:nelem <- 4
	.loc	1 68 5 is_stmt 0                @ sort.c:68:5
	ldr	r0, .LCPI3_3
.Ltmp43:
	ldr	r1, .LCPI3_4
	ldr	r3, .LCPI3_5
	mov	r2, #68
	bl	__assert_fail
.Ltmp44:
.LBB3_4:                                @ %._crit_edge
	@DEBUG_VALUE: test:temp2 <- $r5
	@DEBUG_VALUE: test:temp1 <- $r4
	@DEBUG_VALUE: test:nelem <- 4
	.loc	1 70 3 is_stmt 1                @ sort.c:70:3
	mov	r0, r4
	bl	free
	.loc	1 71 3                          @ sort.c:71:3
	mov	r0, r5
	sub	sp, r11, #16
	pop	{r4, r5, r6, r7, r11, lr}
.Ltmp45:
	b	free
.Ltmp46:
	.p2align	2
@ %bb.5:
	.loc	1 0 3 is_stmt 0                 @ sort.c:0:3
.LCPI3_0:
	.long	.L.str
.LCPI3_1:
	.long	.L.str.1
.LCPI3_2:
	.long	.L.str.2
.LCPI3_3:
	.long	.L.str.3
.LCPI3_4:
	.long	.L.str.4
.LCPI3_5:
	.long	.L__PRETTY_FUNCTION__.test
.Lfunc_end3:
	.size	test, .Lfunc_end3-test
	.cfi_endproc
	.fnend
                                        @ -- End function
	.globl	main                            @ -- Begin function main
	.p2align	2
	.type	main,%function
	.code	32                              @ @main
main:
.Lfunc_begin4:
	.loc	1 74 0 is_stmt 1                @ sort.c:74:0
	.fnstart
	.cfi_startproc
@ %bb.0:
	.save	{r4, r10, r11, lr}
	push	{r4, r10, r11, lr}
	.cfi_def_cfa_offset 16
	.cfi_offset lr, -4
	.cfi_offset r11, -8
	.cfi_offset r10, -12
	.cfi_offset r4, -16
	.setfp	r11, sp, #8
	add	r11, sp, #8
	.cfi_def_cfa r11, 8
	.pad	#32
	sub	sp, sp, #32
	bic	sp, sp, #15
.Ltmp47:
	.loc	1 75 7 prologue_end             @ sort.c:75:7
	ldr	r1, .LCPI4_0
	add	r4, sp, #16
	mov	r2, #16
	mov	r3, #0
	mov	r0, r4
	bl	memcpy
	.loc	1 77 3                          @ sort.c:77:3
	ldr	r0, .LCPI4_1
	mov	r2, #16
	mov	r3, #0
	str	r0, [sp]
	mov	r0, r4
	bl	klee_make_symbolic
	.loc	1 78 3                          @ sort.c:78:3
	mov	r0, r4
	bl	test
	.loc	1 80 3                          @ sort.c:80:3
	mov	r0, #0
	sub	sp, r11, #8
	pop	{r4, r10, r11, lr}
	mov	pc, lr
.Ltmp48:
	.p2align	2
@ %bb.1:
	.loc	1 0 3 is_stmt 0                 @ sort.c:0:3
.LCPI4_0:
	.long	.L__const.main.input
.LCPI4_1:
	.long	.L.str.5
.Lfunc_end4:
	.size	main, .Lfunc_end4-main
	.cfi_endproc
	.fnend
                                        @ -- End function
	.globl	memcpy                          @ -- Begin function memcpy
	.p2align	2
	.type	memcpy,%function
	.code	32                              @ @memcpy
memcpy:
.Lfunc_begin5:
	.file	2 "/home/isak/Documents/xj/klee-fork/klee" "runtime/Freestanding/memcpy.c"
	.loc	2 12 0 is_stmt 1                @ runtime/Freestanding/memcpy.c:12:0
	.fnstart
	.cfi_startproc
@ %bb.0:
	@DEBUG_VALUE: memcpy:destaddr <- $r0
	@DEBUG_VALUE: memcpy:srcaddr <- $r1
	@DEBUG_VALUE: memcpy:len <- [DW_OP_constu 1, DW_OP_minus, DW_OP_stack_value] undef
	.save	{r11, lr}
	push	{r11, lr}
	.cfi_def_cfa_offset 8
	.cfi_offset lr, -4
	.cfi_offset r11, -8
	.setfp	r11, sp
	mov	r11, sp
	.cfi_def_cfa_register r11
.Ltmp49:
	@DEBUG_VALUE: memcpy:dest <- $r0
	@DEBUG_VALUE: memcpy:src <- $r1
	.loc	2 16 16 prologue_end            @ runtime/Freestanding/memcpy.c:16:16
	orrs	r12, r2, r3
.Ltmp50:
	@DEBUG_VALUE: memcpy:len <- [DW_OP_LLVM_fragment 0 32] $r2
	@DEBUG_VALUE: memcpy:len <- [DW_OP_LLVM_fragment 32 32] $r3
	.loc	2 16 3 is_stmt 0                @ runtime/Freestanding/memcpy.c:16:3
	beq	.LBB5_3
.Ltmp51:
@ %bb.1:                                @ %.lr.ph.preheader
	@DEBUG_VALUE: memcpy:len <- [DW_OP_LLVM_fragment 32 32] $r3
	@DEBUG_VALUE: memcpy:len <- [DW_OP_LLVM_fragment 0 32] $r2
	@DEBUG_VALUE: memcpy:src <- $r1
	@DEBUG_VALUE: memcpy:dest <- $r0
	@DEBUG_VALUE: memcpy:srcaddr <- $r1
	@DEBUG_VALUE: memcpy:destaddr <- $r0
	@DEBUG_VALUE: memcpy:len <- [DW_OP_LLVM_fragment 32 32] $r3
	@DEBUG_VALUE: memcpy:len <- [DW_OP_LLVM_fragment 0 32] $r2
	.loc	2 0 3                           @ runtime/Freestanding/memcpy.c:0:3
	mov	r12, r0
.Ltmp52:
.LBB5_2:                                @ %.lr.ph
                                        @ =>This Inner Loop Header: Depth=1
	@DEBUG_VALUE: memcpy:src <- $r1
	@DEBUG_VALUE: memcpy:destaddr <- $r0
	@DEBUG_VALUE: memcpy:dest <- $r12
	@DEBUG_VALUE: memcpy:src <- $r1
	@DEBUG_VALUE: memcpy:len <- [DW_OP_LLVM_fragment 32 32] $r3
	@DEBUG_VALUE: memcpy:len <- [DW_OP_LLVM_fragment 0 32] $r2
	.loc	2 17 15 is_stmt 1               @ runtime/Freestanding/memcpy.c:17:15
	ldrb	lr, [r1], #1
.Ltmp53:
	@DEBUG_VALUE: memcpy:srcaddr <- [DW_OP_LLVM_entry_value 1] $r1
	@DEBUG_VALUE: memcpy:src <- $r1
	.loc	2 16 13                         @ runtime/Freestanding/memcpy.c:16:13
	subs	r2, r2, #1
.Ltmp54:
	@DEBUG_VALUE: memcpy:len <- [DW_OP_LLVM_fragment 0 32] $r2
	sbc	r3, r3, #0
.Ltmp55:
	@DEBUG_VALUE: memcpy:len <- [DW_OP_LLVM_fragment 32 32] $r3
	@DEBUG_VALUE: memcpy:len <- [DW_OP_constu 1, DW_OP_minus, DW_OP_stack_value] undef
	.loc	2 17 13                         @ runtime/Freestanding/memcpy.c:17:13
	strb	lr, [r12], #1
.Ltmp56:
	@DEBUG_VALUE: memcpy:dest <- $r12
	.loc	2 16 16                         @ runtime/Freestanding/memcpy.c:16:16
	orrs	lr, r2, r3
	.loc	2 16 3 is_stmt 0                @ runtime/Freestanding/memcpy.c:16:3
	bne	.LBB5_2
.Ltmp57:
.LBB5_3:                                @ %._crit_edge
	@DEBUG_VALUE: memcpy:src <- $r1
	@DEBUG_VALUE: memcpy:destaddr <- $r0
	.loc	2 18 3 is_stmt 1                @ runtime/Freestanding/memcpy.c:18:3
	pop	{r11, lr}
	mov	pc, lr
.Ltmp58:
.Lfunc_end5:
	.size	memcpy, .Lfunc_end5-memcpy
	.cfi_endproc
	.fnend
                                        @ -- End function
	.globl	memmove                         @ -- Begin function memmove
	.p2align	2
	.type	memmove,%function
	.code	32                              @ @memmove
memmove:
.Lfunc_begin6:
	.file	3 "/home/isak/Documents/xj/klee-fork/klee" "runtime/Freestanding/memmove.c"
	.loc	3 12 0                          @ runtime/Freestanding/memmove.c:12:0
	.fnstart
	.cfi_startproc
@ %bb.0:
	@DEBUG_VALUE: memmove:dst <- $r0
	@DEBUG_VALUE: memmove:src <- $r1
	@DEBUG_VALUE: memmove:count <- [DW_OP_LLVM_fragment 32 32] $r3
	@DEBUG_VALUE: memmove:count <- [DW_OP_LLVM_fragment 0 32] $r2
	.save	{r11, lr}
	push	{r11, lr}
	.cfi_def_cfa_offset 8
	.cfi_offset lr, -4
	.cfi_offset r11, -8
	.setfp	r11, sp
	mov	r11, sp
	.cfi_def_cfa_register r11
.Ltmp59:
	@DEBUG_VALUE: memmove:a <- $r0
	@DEBUG_VALUE: memmove:b <- $r1
	.loc	3 16 7 prologue_end             @ runtime/Freestanding/memmove.c:16:7
	cmp	r1, r0
	beq	.LBB6_8
.Ltmp60:
@ %bb.1:
	@DEBUG_VALUE: memmove:b <- $r1
	@DEBUG_VALUE: memmove:a <- $r0
	@DEBUG_VALUE: memmove:count <- [DW_OP_LLVM_fragment 0 32] $r2
	@DEBUG_VALUE: memmove:count <- [DW_OP_LLVM_fragment 32 32] $r3
	@DEBUG_VALUE: memmove:src <- $r1
	@DEBUG_VALUE: memmove:dst <- $r0
	@DEBUG_VALUE: memmove:count <- [DW_OP_LLVM_fragment 32 32] $r3
	@DEBUG_VALUE: memmove:count <- [DW_OP_LLVM_fragment 0 32] $r2
	.loc	3 19 7                          @ runtime/Freestanding/memmove.c:19:7
	bls	.LBB6_5
.Ltmp61:
@ %bb.2:                                @ %.preheader
	@DEBUG_VALUE: memmove:b <- $r1
	@DEBUG_VALUE: memmove:a <- $r0
	@DEBUG_VALUE: memmove:count <- [DW_OP_LLVM_fragment 0 32] $r2
	@DEBUG_VALUE: memmove:count <- [DW_OP_LLVM_fragment 32 32] $r3
	@DEBUG_VALUE: memmove:src <- $r1
	@DEBUG_VALUE: memmove:dst <- $r0
	@DEBUG_VALUE: memmove:a <- $r0
	@DEBUG_VALUE: memmove:b <- $r1
	@DEBUG_VALUE: memmove:count <- undef
	.loc	3 20 5                          @ runtime/Freestanding/memmove.c:20:5
	orrs	r12, r2, r3
.Ltmp62:
	@DEBUG_VALUE: memmove:count <- [DW_OP_constu 1, DW_OP_minus, DW_OP_stack_value] undef
	beq	.LBB6_8
.Ltmp63:
@ %bb.3:                                @ %.lr.ph.preheader
	@DEBUG_VALUE: memmove:b <- $r1
	@DEBUG_VALUE: memmove:a <- $r0
	@DEBUG_VALUE: memmove:src <- $r1
	@DEBUG_VALUE: memmove:dst <- $r0
	.loc	3 0 5 is_stmt 0                 @ runtime/Freestanding/memmove.c:0:5
	mov	r12, r0
.Ltmp64:
.LBB6_4:                                @ %.lr.ph
                                        @ =>This Inner Loop Header: Depth=1
	@DEBUG_VALUE: memmove:b <- $r1
	@DEBUG_VALUE: memmove:dst <- $r0
	@DEBUG_VALUE: memmove:a <- $r12
	@DEBUG_VALUE: memmove:b <- $r1
	@DEBUG_VALUE: memmove:count <- [DW_OP_LLVM_fragment 32 32] $r3
	@DEBUG_VALUE: memmove:count <- [DW_OP_LLVM_fragment 0 32] $r2
	.loc	3 21 14 is_stmt 1               @ runtime/Freestanding/memmove.c:21:14
	ldrb	lr, [r1], #1
.Ltmp65:
	@DEBUG_VALUE: memmove:src <- [DW_OP_LLVM_entry_value 1] $r1
	@DEBUG_VALUE: memmove:b <- $r1
	.loc	3 20 17                         @ runtime/Freestanding/memmove.c:20:17
	subs	r2, r2, #1
.Ltmp66:
	@DEBUG_VALUE: memmove:count <- [DW_OP_LLVM_fragment 0 32] $r2
	sbc	r3, r3, #0
.Ltmp67:
	@DEBUG_VALUE: memmove:count <- [DW_OP_constu 1, DW_OP_minus, DW_OP_stack_value] undef
	@DEBUG_VALUE: memmove:count <- [DW_OP_LLVM_fragment 32 32] $r3
	.loc	3 21 12                         @ runtime/Freestanding/memmove.c:21:12
	strb	lr, [r12], #1
.Ltmp68:
	@DEBUG_VALUE: memmove:a <- $r12
	.loc	3 20 5                          @ runtime/Freestanding/memmove.c:20:5
	orrs	lr, r2, r3
	bne	.LBB6_4
	b	.LBB6_8
.Ltmp69:
.LBB6_5:
	@DEBUG_VALUE: memmove:b <- $r1
	@DEBUG_VALUE: memmove:a <- $r0
	@DEBUG_VALUE: memmove:count <- [DW_OP_LLVM_fragment 0 32] $r2
	@DEBUG_VALUE: memmove:count <- [DW_OP_LLVM_fragment 32 32] $r3
	@DEBUG_VALUE: memmove:src <- $r1
	@DEBUG_VALUE: memmove:dst <- $r0
	@DEBUG_VALUE: memmove:a <- [DW_OP_LLVM_arg 0, DW_OP_LLVM_arg 0, DW_OP_constu 1, DW_OP_minus, DW_OP_constu 1, DW_OP_mul, DW_OP_plus, DW_OP_stack_value] undef
	@DEBUG_VALUE: memmove:b <- [DW_OP_LLVM_arg 0, DW_OP_LLVM_arg 0, DW_OP_constu 1, DW_OP_minus, DW_OP_constu 1, DW_OP_mul, DW_OP_plus, DW_OP_stack_value] undef
	@DEBUG_VALUE: memmove:count <- undef
	.loc	3 25 5                          @ runtime/Freestanding/memmove.c:25:5
	orrs	r12, r2, r3
.Ltmp70:
	@DEBUG_VALUE: memmove:count <- [DW_OP_constu 1, DW_OP_minus, DW_OP_stack_value] undef
	beq	.LBB6_8
.Ltmp71:
@ %bb.6:                                @ %.lr.ph16
	@DEBUG_VALUE: memmove:src <- $r1
	@DEBUG_VALUE: memmove:dst <- $r0
	@DEBUG_VALUE: memmove:b <- [DW_OP_LLVM_arg 0, DW_OP_LLVM_arg 1, DW_OP_constu 1, DW_OP_mul, DW_OP_plus, DW_OP_stack_value] undef
	.loc	3 24 7                          @ runtime/Freestanding/memmove.c:24:7
	sub	lr, r2, #1
.Ltmp72:
	@DEBUG_VALUE: memmove:a <- [DW_OP_LLVM_arg 0, DW_OP_LLVM_arg 1, DW_OP_constu 1, DW_OP_mul, DW_OP_plus, DW_OP_stack_value] undef
	.loc	3 23 7                          @ runtime/Freestanding/memmove.c:23:7
	add	r12, r0, lr
.Ltmp73:
	@DEBUG_VALUE: memmove:a <- $r12
	.loc	3 24 7                          @ runtime/Freestanding/memmove.c:24:7
	add	lr, r1, lr
.Ltmp74:
	@DEBUG_VALUE: memmove:b <- $lr
.LBB6_7:                                @ =>This Inner Loop Header: Depth=1
	@DEBUG_VALUE: memmove:b <- $lr
	@DEBUG_VALUE: memmove:a <- $r12
	@DEBUG_VALUE: memmove:dst <- $r0
	@DEBUG_VALUE: memmove:a <- $r12
	@DEBUG_VALUE: memmove:b <- $lr
	@DEBUG_VALUE: memmove:count <- [DW_OP_LLVM_fragment 32 32] $r3
	@DEBUG_VALUE: memmove:count <- [DW_OP_LLVM_fragment 0 32] $r2
	.loc	3 26 14                         @ runtime/Freestanding/memmove.c:26:14
	ldrb	r1, [lr], #-1
.Ltmp75:
	@DEBUG_VALUE: memmove:src <- [DW_OP_LLVM_entry_value 1] $r1
	@DEBUG_VALUE: memmove:b <- $lr
	.loc	3 25 17                         @ runtime/Freestanding/memmove.c:25:17
	subs	r2, r2, #1
.Ltmp76:
	@DEBUG_VALUE: memmove:count <- [DW_OP_LLVM_fragment 0 32] $r2
	sbc	r3, r3, #0
.Ltmp77:
	@DEBUG_VALUE: memmove:count <- [DW_OP_constu 1, DW_OP_minus, DW_OP_stack_value] undef
	@DEBUG_VALUE: memmove:count <- [DW_OP_LLVM_fragment 32 32] $r3
	.loc	3 26 12                         @ runtime/Freestanding/memmove.c:26:12
	strb	r1, [r12], #-1
.Ltmp78:
	@DEBUG_VALUE: memmove:a <- $r12
	.loc	3 25 5                          @ runtime/Freestanding/memmove.c:25:5
	orrs	r1, r2, r3
	bne	.LBB6_7
.Ltmp79:
.LBB6_8:                                @ %.loopexit
	@DEBUG_VALUE: memmove:dst <- $r0
	.loc	3 30 1                          @ runtime/Freestanding/memmove.c:30:1
	pop	{r11, lr}
	mov	pc, lr
.Ltmp80:
.Lfunc_end6:
	.size	memmove, .Lfunc_end6-memmove
	.cfi_endproc
	.fnend
                                        @ -- End function
	.type	.L.str,%object                  @ @.str
	.section	.rodata.str1.1,"aMS",%progbits,1
.L.str:
	.asciz	"input: [%d, %d, %d, %d]\n"
	.size	.L.str, 25

	.type	.L.str.1,%object                @ @.str.1
.L.str.1:
	.asciz	"insertion_sort: [%d, %d, %d, %d]\n"
	.size	.L.str.1, 34

	.type	.L.str.2,%object                @ @.str.2
.L.str.2:
	.asciz	"bubble_sort   : [%d, %d, %d, %d]\n"
	.size	.L.str.2, 34

	.type	.L.str.3,%object                @ @.str.3
.L.str.3:
	.asciz	"temp1[i] == temp2[i]"
	.size	.L.str.3, 21

	.type	.L.str.4,%object                @ @.str.4
.L.str.4:
	.asciz	"sort.c"
	.size	.L.str.4, 7

	.type	.L__PRETTY_FUNCTION__.test,%object @ @__PRETTY_FUNCTION__.test
.L__PRETTY_FUNCTION__.test:
	.asciz	"void test(int *, unsigned int)"
	.size	.L__PRETTY_FUNCTION__.test, 31

	.type	.L__const.main.input,%object    @ @__const.main.input
	.section	.rodata.cst16,"aM",%progbits,16
	.p2align	4
.L__const.main.input:
	.long	4                               @ 0x4
	.long	3                               @ 0x3
	.long	2                               @ 0x2
	.long	1                               @ 0x1
	.size	.L__const.main.input, 16

	.type	.L.str.5,%object                @ @.str.5
	.section	.rodata.str1.1,"aMS",%progbits,1
.L.str.5:
	.asciz	"input"
	.size	.L.str.5, 6

	.file	4 "/usr/lib/llvm-13/lib/clang/13.0.1/include" "stddef.h"
	.section	".note.GNU-stack","",%progbits
	.eabi_attribute	30, 1	@ Tag_ABI_optimization_goals