	.text
	.syntax unified
	.eabi_attribute	67, "2.09"	@ Tag_conformance
	.cpu	cortex-m4
	.eabi_attribute	6, 13	@ Tag_CPU_arch
	.eabi_attribute	7, 77	@ Tag_CPU_arch_profile
	.eabi_attribute	8, 0	@ Tag_ARM_ISA_use
	.eabi_attribute	9, 2	@ Tag_THUMB_ISA_use
	.fpu	fpv4-sp-d16
	.eabi_attribute	27, 1	@ Tag_ABI_HardFP_use
	.eabi_attribute	36, 1	@ Tag_FP_HP_extension
	.eabi_attribute	34, 1	@ Tag_CPU_unaligned_access
	.eabi_attribute	17, 1	@ Tag_ABI_PCS_GOT_use
	.eabi_attribute	20, 1	@ Tag_ABI_FP_denormal
	.eabi_attribute	21, 1	@ Tag_ABI_FP_exceptions
	.eabi_attribute	23, 3	@ Tag_ABI_FP_number_model
	.eabi_attribute	24, 1	@ Tag_ABI_align_needed
	.eabi_attribute	25, 1	@ Tag_ABI_align_preserved
	.eabi_attribute	38, 1	@ Tag_ABI_FP_16bit_format
	.eabi_attribute	14, 0	@ Tag_ABI_PCS_R9_use
	.file	"1qy0s3krhxnn7fkb"
	.p2align	2                               @ -- Begin function _ZN3std10sys_common9backtrace28__rust_begin_short_backtrace17he77a0b057f9961a7E
	.type	_ZN3std10sys_common9backtrace28__rust_begin_short_backtrace17he77a0b057f9961a7E,%function
	.code	32                              @ @_ZN3std10sys_common9backtrace28__rust_begin_short_backtrace17he77a0b057f9961a7E
_ZN3std10sys_common9backtrace28__rust_begin_short_backtrace17he77a0b057f9961a7E:
.Lfunc_begin0:
	.file	1 "/rustc/f1edd0429582dd29cccacaf50fd134b05593bd9c/library/std/src/sys_common" "backtrace.rs"
	.loc	1 119 0                         @ /rustc/f1edd0429582dd29cccacaf50fd134b05593bd9c/library/std/src/sys_common/backtrace.rs:119:0
	.fnstart
	.cfi_sections .debug_frame
	.cfi_startproc
@ %bb.0:                                @ %start
	.save	{r11, lr}
	push	{r11, lr}
	.cfi_def_cfa_offset 8
	.cfi_offset lr, -4
	.cfi_offset r11, -8
	.pad	#24
	sub	sp, sp, #24
	.cfi_def_cfa_offset 32
	str	r0, [sp, #8]
.Ltmp6:
	.loc	1 123 18 prologue_end           @ /rustc/f1edd0429582dd29cccacaf50fd134b05593bd9c/library/std/src/sys_common/backtrace.rs:123:18
	bl	_ZN4core3ops8function6FnOnce9call_once17he2ef528cca5ba070E
.Ltmp0:
.Ltmp7:
	.loc	1 126 5                         @ /rustc/f1edd0429582dd29cccacaf50fd134b05593bd9c/library/std/src/sys_common/backtrace.rs:126:5
	bl	_ZN4core4hint9black_box17hecf72d9b21525f67E
.Ltmp8:
.Ltmp1:
@ %bb.1:                                @ %bb2
	.loc	1 129 2                         @ /rustc/f1edd0429582dd29cccacaf50fd134b05593bd9c/library/std/src/sys_common/backtrace.rs:129:2
	add	sp, sp, #24
	pop	{r11, lr}
	mov	pc, lr
.Ltmp9:
.LBB0_2:                                @ %cleanup
.Ltmp2:
	.loc	1 0 2 is_stmt 0                 @ /rustc/f1edd0429582dd29cccacaf50fd134b05593bd9c/library/std/src/sys_common/backtrace.rs:0:2
	str	r1, [sp, #20]
	str	r0, [sp, #16]
	bl	_Unwind_Resume
.Lfunc_end0:
	.size	_ZN3std10sys_common9backtrace28__rust_begin_short_backtrace17he77a0b057f9961a7E, .Lfunc_end0-_ZN3std10sys_common9backtrace28__rust_begin_short_backtrace17he77a0b057f9961a7E
	.cfi_endproc
	.globl	rust_eh_personality
	.personality rust_eh_personality
	.handlerdata
	.p2align	2
GCC_except_table0:
.Lexception0:
	.byte	255                             @ @LPStart Encoding = omit
	.byte	255                             @ @TType Encoding = omit
	.byte	1                               @ Call site Encoding = uleb128
	.uleb128 .Lcst_end0-.Lcst_begin0
.Lcst_begin0:
	.uleb128 .Lfunc_begin0-.Lfunc_begin0    @ >> Call Site 1 <<
	.uleb128 .Ltmp0-.Lfunc_begin0           @   Call between .Lfunc_begin0 and .Ltmp0
	.byte	0                               @     has no landing pad
	.byte	0                               @   On action: cleanup
	.uleb128 .Ltmp0-.Lfunc_begin0           @ >> Call Site 2 <<
	.uleb128 .Ltmp1-.Ltmp0                  @   Call between .Ltmp0 and .Ltmp1
	.uleb128 .Ltmp2-.Lfunc_begin0           @     jumps to .Ltmp2
	.byte	0                               @   On action: cleanup
	.uleb128 .Ltmp1-.Lfunc_begin0           @ >> Call Site 3 <<
	.uleb128 .Lfunc_end0-.Ltmp1             @   Call between .Ltmp1 and .Lfunc_end0
	.byte	0                               @     has no landing pad
	.byte	0                               @   On action: cleanup
.Lcst_end0:
	.p2align	2
	.fnend
                                        @ -- End function
	.hidden	_ZN3std2rt10lang_start17h95c4eabd28917cccE @ -- Begin function _ZN3std2rt10lang_start17h95c4eabd28917cccE
	.globl	_ZN3std2rt10lang_start17h95c4eabd28917cccE
	.p2align	2
	.type	_ZN3std2rt10lang_start17h95c4eabd28917cccE,%function
	.code	32                              @ @_ZN3std2rt10lang_start17h95c4eabd28917cccE
_ZN3std2rt10lang_start17h95c4eabd28917cccE:
.Lfunc_begin1:
	.file	2 "/rustc/f1edd0429582dd29cccacaf50fd134b05593bd9c/library/std/src" "rt.rs"
	.loc	2 140 0 is_stmt 1               @ /rustc/f1edd0429582dd29cccacaf50fd134b05593bd9c/library/std/src/rt.rs:140:0
	.fnstart
	.cfi_startproc
@ %bb.0:                                @ %start
	.save	{r11, lr}
	push	{r11, lr}
	.cfi_def_cfa_offset 8
	.cfi_offset lr, -4
	.cfi_offset r11, -8
	.pad	#48
	sub	sp, sp, #48
	.cfi_def_cfa_offset 56
	str	r0, [sp, #24]
.Ltmp10:
	.loc	2 146 10 prologue_end           @ /rustc/f1edd0429582dd29cccacaf50fd134b05593bd9c/library/std/src/rt.rs:146:10
	str	r0, [sp, #16]
	ldr	r0, [sp, #56]
	.loc	2 145 17                        @ /rustc/f1edd0429582dd29cccacaf50fd134b05593bd9c/library/std/src/rt.rs:145:17
	ldr	r1, .LCPI1_0
	str	r3, [sp, #36]
	str	r2, [sp, #32]
	str	r0, [sp]
	add	r0, sp, #16
	bl	_ZN3std2rt19lang_start_internal17hd15a47be08101c28E
	str	r1, [sp, #12]
	str	r0, [sp, #8]
	.loc	2 145 12 is_stmt 0              @ /rustc/f1edd0429582dd29cccacaf50fd134b05593bd9c/library/std/src/rt.rs:145:12
	ldr	r0, [sp, #8]
	ldr	r1, [sp, #12]
	str	r1, [sp, #44]
	str	r0, [sp, #40]
	.loc	2 151 2 is_stmt 1               @ /rustc/f1edd0429582dd29cccacaf50fd134b05593bd9c/library/std/src/rt.rs:151:2
	add	sp, sp, #48
	pop	{r11, lr}
	mov	pc, lr
.Ltmp11:
	.p2align	2
@ %bb.1:
	.loc	2 0 2 is_stmt 0                 @ /rustc/f1edd0429582dd29cccacaf50fd134b05593bd9c/library/std/src/rt.rs:0:2
.LCPI1_0:
	.long	.Lvtable.0
.Lfunc_end1:
	.size	_ZN3std2rt10lang_start17h95c4eabd28917cccE, .Lfunc_end1-_ZN3std2rt10lang_start17h95c4eabd28917cccE
	.cfi_endproc
	.fnend
                                        @ -- End function
	.p2align	2                               @ -- Begin function _ZN3std2rt10lang_start28_$u7b$$u7b$closure$u7d$$u7d$17haf3fc2bcbbcd6de5E
	.type	_ZN3std2rt10lang_start28_$u7b$$u7b$closure$u7d$$u7d$17haf3fc2bcbbcd6de5E,%function
	.code	32                              @ @"_ZN3std2rt10lang_start28_$u7b$$u7b$closure$u7d$$u7d$17haf3fc2bcbbcd6de5E"
_ZN3std2rt10lang_start28_$u7b$$u7b$closure$u7d$$u7d$17haf3fc2bcbbcd6de5E:
.Lfunc_begin2:
	.loc	2 146 0 is_stmt 1               @ /rustc/f1edd0429582dd29cccacaf50fd134b05593bd9c/library/std/src/rt.rs:146:0
	.fnstart
	.cfi_startproc
@ %bb.0:                                @ %start
	.save	{r11, lr}
	push	{r11, lr}
	.cfi_def_cfa_offset 8
	.cfi_offset lr, -4
	.cfi_offset r11, -8
	.pad	#8
	sub	sp, sp, #8
	.cfi_def_cfa_offset 16
	str	r0, [sp]
.Ltmp12:
	.loc	2 146 77 prologue_end           @ /rustc/f1edd0429582dd29cccacaf50fd134b05593bd9c/library/std/src/rt.rs:146:77
	ldr	r0, [r0]
	.loc	2 146 18 is_stmt 0              @ /rustc/f1edd0429582dd29cccacaf50fd134b05593bd9c/library/std/src/rt.rs:146:18
	bl	_ZN3std10sys_common9backtrace28__rust_begin_short_backtrace17he77a0b057f9961a7E
	bl	_ZN54_$LT$$LP$$RP$$u20$as$u20$std..process..Termination$GT$6report17hd572dd8d4d8f64c3E
	.loc	2 146 91                        @ /rustc/f1edd0429582dd29cccacaf50fd134b05593bd9c/library/std/src/rt.rs:146:91
	add	sp, sp, #8
	pop	{r11, lr}
	mov	pc, lr
.Ltmp13:
.Lfunc_end2:
	.size	_ZN3std2rt10lang_start28_$u7b$$u7b$closure$u7d$$u7d$17haf3fc2bcbbcd6de5E, .Lfunc_end2-_ZN3std2rt10lang_start28_$u7b$$u7b$closure$u7d$$u7d$17haf3fc2bcbbcd6de5E
	.cfi_endproc
	.fnend
                                        @ -- End function
	.p2align	2                               @ -- Begin function _ZN3std3sys4unix7process14process_common8ExitCode6as_i3217hb58bd3de589f5a9bE
	.type	_ZN3std3sys4unix7process14process_common8ExitCode6as_i3217hb58bd3de589f5a9bE,%function
	.code	32                              @ @_ZN3std3sys4unix7process14process_common8ExitCode6as_i3217hb58bd3de589f5a9bE
_ZN3std3sys4unix7process14process_common8ExitCode6as_i3217hb58bd3de589f5a9bE:
.Lfunc_begin3:
	.file	3 "/rustc/f1edd0429582dd29cccacaf50fd134b05593bd9c/library/std/src/sys/unix/process" "process_common.rs"
	.loc	3 474 0 is_stmt 1               @ /rustc/f1edd0429582dd29cccacaf50fd134b05593bd9c/library/std/src/sys/unix/process/process_common.rs:474:0
	.fnstart
	.cfi_startproc
@ %bb.0:                                @ %start
	.pad	#8
	sub	sp, sp, #8
	.cfi_def_cfa_offset 8
	str	r0, [sp]
.Ltmp14:
	.loc	3 475 9 prologue_end            @ /rustc/f1edd0429582dd29cccacaf50fd134b05593bd9c/library/std/src/sys/unix/process/process_common.rs:475:9
	ldrb	r0, [r0]
	.loc	3 476 6                         @ /rustc/f1edd0429582dd29cccacaf50fd134b05593bd9c/library/std/src/sys/unix/process/process_common.rs:476:6
	add	sp, sp, #8
	mov	pc, lr
.Ltmp15:
.Lfunc_end3:
	.size	_ZN3std3sys4unix7process14process_common8ExitCode6as_i3217hb58bd3de589f5a9bE, .Lfunc_end3-_ZN3std3sys4unix7process14process_common8ExitCode6as_i3217hb58bd3de589f5a9bE
	.cfi_endproc
	.fnend
                                        @ -- End function
	.p2align	2                               @ -- Begin function _ZN4core3fmt9Arguments6new_v117h3c95ffd7d6febbd6E
	.type	_ZN4core3fmt9Arguments6new_v117h3c95ffd7d6febbd6E,%function
	.code	32                              @ @_ZN4core3fmt9Arguments6new_v117h3c95ffd7d6febbd6E
_ZN4core3fmt9Arguments6new_v117h3c95ffd7d6febbd6E:
.Lfunc_begin4:
	.file	4 "/rustc/f1edd0429582dd29cccacaf50fd134b05593bd9c/library/core/src/fmt" "mod.rs"
	.loc	4 361 0                         @ /rustc/f1edd0429582dd29cccacaf50fd134b05593bd9c/library/core/src/fmt/mod.rs:361:0
	.fnstart
	.cfi_startproc
@ %bb.0:                                @ %start
	.save	{r4, r5, r6, r7, r11, lr}
	push	{r4, r5, r6, r7, r11, lr}
	.cfi_def_cfa_offset 24
	.cfi_offset lr, -4
	.cfi_offset r11, -8
	.cfi_offset r7, -12
	.cfi_offset r6, -16
	.cfi_offset r5, -20
	.cfi_offset r4, -24
	.pad	#56
	sub	sp, sp, #56
	.cfi_def_cfa_offset 80
	ldr	r4, [sp, #88]
	ldr	r12, [sp, #92]
	ldr	lr, [sp, #80]
	str	r3, [sp, #36]
	str	r2, [sp, #32]
	str	r1, [sp, #24]
.Ltmp16:
	.loc	4 362 12 prologue_end           @ /rustc/f1edd0429582dd29cccacaf50fd134b05593bd9c/library/core/src/fmt/mod.rs:362:12
	subs	r5, r2, r4
	str	r12, [sp, #52]
	str	r4, [sp, #48]
	str	lr, [sp, #40]
	sbcs	r5, r3, r12
	bhs	.LBB4_2
@ %bb.1:                                @ %bb1
	.loc	4 0 12 is_stmt 0                @ /rustc/f1edd0429582dd29cccacaf50fd134b05593bd9c/library/core/src/fmt/mod.rs:0:12
	mov	r5, #1
	.loc	4 362 12                        @ /rustc/f1edd0429582dd29cccacaf50fd134b05593bd9c/library/core/src/fmt/mod.rs:362:12
	strb	r5, [sp, #7]
	b	.LBB4_3
.LBB4_2:                                @ %bb2
	.loc	4 362 56                        @ /rustc/f1edd0429582dd29cccacaf50fd134b05593bd9c/library/core/src/fmt/mod.rs:362:56
	adds	r5, r4, #1
	mov	r7, #0
	adc	r6, r12, #0
	.loc	4 362 41                        @ /rustc/f1edd0429582dd29cccacaf50fd134b05593bd9c/library/core/src/fmt/mod.rs:362:41
	subs	r5, r5, r2
	sbcs	r5, r6, r3
	movlo	r7, #1
	.loc	4 362 12                        @ /rustc/f1edd0429582dd29cccacaf50fd134b05593bd9c/library/core/src/fmt/mod.rs:362:12
	strb	r7, [sp, #7]
.LBB4_3:                                @ %bb3
	ldrb	r5, [sp, #7]
	tst	r5, #1
	.loc	4 365 9 is_stmt 1               @ /rustc/f1edd0429582dd29cccacaf50fd134b05593bd9c/library/core/src/fmt/mod.rs:365:9
	streq	r4, [r0, #40]
	ldreq	r4, [sp, #16]
	streq	r1, [r0]
	addeq	r1, r0, #24
	ldreq	r5, [sp, #20]
	streq	r2, [r0, #8]
	streq	r3, [r0, #12]
	streq	r12, [r0, #44]
	stmeq	r1, {r4, r5, lr}
	moveq	r1, #0
	streq	r1, [r0, #16]
	.loc	4 365 34 is_stmt 0              @ /rustc/f1edd0429582dd29cccacaf50fd134b05593bd9c/library/core/src/fmt/mod.rs:365:34
	streq	r1, [sp, #8]
	.loc	4 366 6 is_stmt 1               @ /rustc/f1edd0429582dd29cccacaf50fd134b05593bd9c/library/core/src/fmt/mod.rs:366:6
	addeq	sp, sp, #56
	popeq	{r4, r5, r6, r7, r11, lr}
	moveq	pc, lr
.LBB4_4:                                @ %bb4
	.loc	4 363 13                        @ /rustc/f1edd0429582dd29cccacaf50fd134b05593bd9c/library/core/src/fmt/mod.rs:363:13
	ldr	r0, .LCPI4_0
	mov	r2, #12
	mov	r3, #0
	str	r0, [sp]
	ldr	r0, .LCPI4_1
	bl	_ZN4core9panicking5panic17h0ba7146865b2f9d6E
.Ltmp17:
	.p2align	2
@ %bb.5:
	.loc	4 0 13 is_stmt 0                @ /rustc/f1edd0429582dd29cccacaf50fd134b05593bd9c/library/core/src/fmt/mod.rs:0:13
.LCPI4_0:
	.long	.Lalloc35
.LCPI4_1:
	.long	.Lalloc33
.Lfunc_end4:
	.size	_ZN4core3fmt9Arguments6new_v117h3c95ffd7d6febbd6E, .Lfunc_end4-_ZN4core3fmt9Arguments6new_v117h3c95ffd7d6febbd6E
	.cfi_endproc
	.fnend
                                        @ -- End function
	.p2align	2                               @ -- Begin function _ZN4core3ops8function6FnOnce40call_once$u7b$$u7b$vtable.shim$u7d$$u7d$17h05d87b071da08e66E
	.type	_ZN4core3ops8function6FnOnce40call_once$u7b$$u7b$vtable.shim$u7d$$u7d$17h05d87b071da08e66E,%function
	.code	32                              @ @"_ZN4core3ops8function6FnOnce40call_once$u7b$$u7b$vtable.shim$u7d$$u7d$17h05d87b071da08e66E"
_ZN4core3ops8function6FnOnce40call_once$u7b$$u7b$vtable.shim$u7d$$u7d$17h05d87b071da08e66E:
.Lfunc_begin5:
	.file	5 "/rustc/f1edd0429582dd29cccacaf50fd134b05593bd9c/library/core/src/ops" "function.rs"
	.loc	5 227 0 is_stmt 1               @ /rustc/f1edd0429582dd29cccacaf50fd134b05593bd9c/library/core/src/ops/function.rs:227:0
	.fnstart
	.cfi_startproc
@ %bb.0:                                @ %start
	.save	{r11, lr}
	push	{r11, lr}
	.cfi_def_cfa_offset 8
	.cfi_offset lr, -4
	.cfi_offset r11, -8
	.pad	#16
	sub	sp, sp, #16
	.cfi_def_cfa_offset 24
	str	r0, [sp, #8]
.Ltmp18:
	.loc	5 227 5 prologue_end            @ /rustc/f1edd0429582dd29cccacaf50fd134b05593bd9c/library/core/src/ops/function.rs:227:5
	ldr	r0, [r0]
	bl	_ZN4core3ops8function6FnOnce9call_once17hcc7f309ae1cc237bE
	add	sp, sp, #16
	pop	{r11, lr}
	mov	pc, lr
.Ltmp19:
.Lfunc_end5:
	.size	_ZN4core3ops8function6FnOnce40call_once$u7b$$u7b$vtable.shim$u7d$$u7d$17h05d87b071da08e66E, .Lfunc_end5-_ZN4core3ops8function6FnOnce40call_once$u7b$$u7b$vtable.shim$u7d$$u7d$17h05d87b071da08e66E
	.cfi_endproc
	.fnend
                                        @ -- End function
	.p2align	2                               @ -- Begin function _ZN4core3ops8function6FnOnce9call_once17hcc7f309ae1cc237bE
	.type	_ZN4core3ops8function6FnOnce9call_once17hcc7f309ae1cc237bE,%function
	.code	32                              @ @_ZN4core3ops8function6FnOnce9call_once17hcc7f309ae1cc237bE
_ZN4core3ops8function6FnOnce9call_once17hcc7f309ae1cc237bE:
.Lfunc_begin6:
	.loc	5 227 0                         @ /rustc/f1edd0429582dd29cccacaf50fd134b05593bd9c/library/core/src/ops/function.rs:227:0
	.fnstart
	.cfi_startproc
@ %bb.0:                                @ %start
	.save	{r11, lr}
	push	{r11, lr}
	.cfi_def_cfa_offset 8
	.cfi_offset lr, -4
	.cfi_offset r11, -8
	.pad	#16
	sub	sp, sp, #16
	.cfi_def_cfa_offset 24
	str	r0, [sp]
.Ltmp3:
	mov	r0, sp
.Ltmp20:
	.loc	5 227 5 prologue_end            @ /rustc/f1edd0429582dd29cccacaf50fd134b05593bd9c/library/core/src/ops/function.rs:227:5
	bl	_ZN3std2rt10lang_start28_$u7b$$u7b$closure$u7d$$u7d$17haf3fc2bcbbcd6de5E
.Ltmp4:
@ %bb.1:                                @ %bb1
	add	sp, sp, #16
	pop	{r11, lr}
	mov	pc, lr
.Ltmp21:
.LBB6_2:                                @ %cleanup
.Ltmp5:
	.loc	5 0 5 is_stmt 0                 @ /rustc/f1edd0429582dd29cccacaf50fd134b05593bd9c/library/core/src/ops/function.rs:0:5
	str	r1, [sp, #12]
	str	r0, [sp, #8]
	bl	_Unwind_Resume
.Lfunc_end6:
	.size	_ZN4core3ops8function6FnOnce9call_once17hcc7f309ae1cc237bE, .Lfunc_end6-_ZN4core3ops8function6FnOnce9call_once17hcc7f309ae1cc237bE
	.cfi_endproc
	.globl	rust_eh_personality
	.personality rust_eh_personality
	.handlerdata
	.p2align	2
GCC_except_table6:
.Lexception1:
	.byte	255                             @ @LPStart Encoding = omit
	.byte	255                             @ @TType Encoding = omit
	.byte	1                               @ Call site Encoding = uleb128
	.uleb128 .Lcst_end1-.Lcst_begin1
.Lcst_begin1:
	.uleb128 .Ltmp3-.Lfunc_begin6           @ >> Call Site 1 <<
	.uleb128 .Ltmp4-.Ltmp3                  @   Call between .Ltmp3 and .Ltmp4
	.uleb128 .Ltmp5-.Lfunc_begin6           @     jumps to .Ltmp5
	.byte	0                               @   On action: cleanup
	.uleb128 .Ltmp4-.Lfunc_begin6           @ >> Call Site 2 <<
	.uleb128 .Lfunc_end6-.Ltmp4             @   Call between .Ltmp4 and .Lfunc_end6
	.byte	0                               @     has no landing pad
	.byte	0                               @   On action: cleanup
.Lcst_end1:
	.p2align	2
	.fnend
                                        @ -- End function
	.p2align	2                               @ -- Begin function _ZN4core3ops8function6FnOnce9call_once17he2ef528cca5ba070E
	.type	_ZN4core3ops8function6FnOnce9call_once17he2ef528cca5ba070E,%function
	.code	32                              @ @_ZN4core3ops8function6FnOnce9call_once17he2ef528cca5ba070E
_ZN4core3ops8function6FnOnce9call_once17he2ef528cca5ba070E:
.Lfunc_begin7:
	.loc	5 227 0 is_stmt 1               @ /rustc/f1edd0429582dd29cccacaf50fd134b05593bd9c/library/core/src/ops/function.rs:227:0
	.fnstart
	.cfi_startproc
@ %bb.0:                                @ %start
	.save	{r11, lr}
	push	{r11, lr}
	.cfi_def_cfa_offset 8
	.cfi_offset lr, -4
	.cfi_offset r11, -8
	.pad	#16
	sub	sp, sp, #16
	.cfi_def_cfa_offset 24
	str	r0, [sp, #8]
.Ltmp22:
	.loc	5 227 5 prologue_end            @ /rustc/f1edd0429582dd29cccacaf50fd134b05593bd9c/library/core/src/ops/function.rs:227:5
	mov	lr, pc
	mov	pc, r0
	add	sp, sp, #16
	pop	{r11, lr}
	mov	pc, lr
.Ltmp23:
.Lfunc_end7:
	.size	_ZN4core3ops8function6FnOnce9call_once17he2ef528cca5ba070E, .Lfunc_end7-_ZN4core3ops8function6FnOnce9call_once17he2ef528cca5ba070E
	.cfi_endproc
	.fnend
                                        @ -- End function
	.p2align	2                               @ -- Begin function _ZN4core3ptr85drop_in_place$LT$std..rt..lang_start$LT$$LP$$RP$$GT$..$u7b$$u7b$closure$u7d$$u7d$$GT$17h915f7ee027681576E
	.type	_ZN4core3ptr85drop_in_place$LT$std..rt..lang_start$LT$$LP$$RP$$GT$..$u7b$$u7b$closure$u7d$$u7d$$GT$17h915f7ee027681576E,%function
	.code	32                              @ @"_ZN4core3ptr85drop_in_place$LT$std..rt..lang_start$LT$$LP$$RP$$GT$..$u7b$$u7b$closure$u7d$$u7d$$GT$17h915f7ee027681576E"
_ZN4core3ptr85drop_in_place$LT$std..rt..lang_start$LT$$LP$$RP$$GT$..$u7b$$u7b$closure$u7d$$u7d$$GT$17h915f7ee027681576E:
.Lfunc_begin8:
	.file	6 "/rustc/f1edd0429582dd29cccacaf50fd134b05593bd9c/library/core/src/ptr" "mod.rs"
	.loc	6 188 0                         @ /rustc/f1edd0429582dd29cccacaf50fd134b05593bd9c/library/core/src/ptr/mod.rs:188:0
	.fnstart
	.cfi_startproc
@ %bb.0:                                @ %start
	.pad	#8
	sub	sp, sp, #8
	.cfi_def_cfa_offset 8
	str	r0, [sp], #8
.Ltmp24:
	.loc	6 188 1 prologue_end            @ /rustc/f1edd0429582dd29cccacaf50fd134b05593bd9c/library/core/src/ptr/mod.rs:188:1
	mov	pc, lr
.Ltmp25:
.Lfunc_end8:
	.size	_ZN4core3ptr85drop_in_place$LT$std..rt..lang_start$LT$$LP$$RP$$GT$..$u7b$$u7b$closure$u7d$$u7d$$GT$17h915f7ee027681576E, .Lfunc_end8-_ZN4core3ptr85drop_in_place$LT$std..rt..lang_start$LT$$LP$$RP$$GT$..$u7b$$u7b$closure$u7d$$u7d$$GT$17h915f7ee027681576E
	.cfi_endproc
	.fnend
                                        @ -- End function
	.p2align	2                               @ -- Begin function _ZN4core4hint9black_box17hecf72d9b21525f67E
	.type	_ZN4core4hint9black_box17hecf72d9b21525f67E,%function
	.code	32                              @ @_ZN4core4hint9black_box17hecf72d9b21525f67E
_ZN4core4hint9black_box17hecf72d9b21525f67E:
.Lfunc_begin9:
	.file	7 "/rustc/f1edd0429582dd29cccacaf50fd134b05593bd9c/library/core/src" "hint.rs"
	.loc	7 157 0                         @ /rustc/f1edd0429582dd29cccacaf50fd134b05593bd9c/library/core/src/hint.rs:157:0
	.fnstart
	.cfi_startproc
@ %bb.0:                                @ %start
	.pad	#4
	sub	sp, sp, #4
	.cfi_def_cfa_offset 4
.Ltmp26:
	.loc	7 158 5 prologue_end            @ /rustc/f1edd0429582dd29cccacaf50fd134b05593bd9c/library/core/src/hint.rs:158:5
	@APP
	@NO_APP
	.loc	7 159 2                         @ /rustc/f1edd0429582dd29cccacaf50fd134b05593bd9c/library/core/src/hint.rs:159:2
	add	sp, sp, #4
	mov	pc, lr
.Ltmp27:
.Lfunc_end9:
	.size	_ZN4core4hint9black_box17hecf72d9b21525f67E, .Lfunc_end9-_ZN4core4hint9black_box17hecf72d9b21525f67E
	.cfi_endproc
	.fnend
                                        @ -- End function
	.p2align	2                               @ -- Begin function _ZN54_$LT$$LP$$RP$$u20$as$u20$std..process..Termination$GT$6report17hd572dd8d4d8f64c3E
	.type	_ZN54_$LT$$LP$$RP$$u20$as$u20$std..process..Termination$GT$6report17hd572dd8d4d8f64c3E,%function
	.code	32                              @ @"_ZN54_$LT$$LP$$RP$$u20$as$u20$std..process..Termination$GT$6report17hd572dd8d4d8f64c3E"
_ZN54_$LT$$LP$$RP$$u20$as$u20$std..process..Termination$GT$6report17hd572dd8d4d8f64c3E:
.Lfunc_begin10:
	.file	8 "/rustc/f1edd0429582dd29cccacaf50fd134b05593bd9c/library/std/src" "process.rs"
	.loc	8 2019 0                        @ /rustc/f1edd0429582dd29cccacaf50fd134b05593bd9c/library/std/src/process.rs:2019:0
	.fnstart
	.cfi_startproc
@ %bb.0:                                @ %start
	.save	{r11, lr}
	push	{r11, lr}
	.cfi_def_cfa_offset 8
	.cfi_offset lr, -4
	.cfi_offset r11, -8
	.pad	#8
	sub	sp, sp, #8
	.cfi_def_cfa_offset 16
.Ltmp28:
	.loc	8 2020 9 prologue_end           @ /rustc/f1edd0429582dd29cccacaf50fd134b05593bd9c/library/std/src/process.rs:2020:9
	mov	r0, #0
	bl	_ZN68_$LT$std..process..ExitCode$u20$as$u20$std..process..Termination$GT$6report17h754f37281d48e2e3E
	.loc	8 2021 6                        @ /rustc/f1edd0429582dd29cccacaf50fd134b05593bd9c/library/std/src/process.rs:2021:6
	add	sp, sp, #8
	pop	{r11, lr}
	mov	pc, lr
.Ltmp29:
.Lfunc_end10:
	.size	_ZN54_$LT$$LP$$RP$$u20$as$u20$std..process..Termination$GT$6report17hd572dd8d4d8f64c3E, .Lfunc_end10-_ZN54_$LT$$LP$$RP$$u20$as$u20$std..process..Termination$GT$6report17hd572dd8d4d8f64c3E
	.cfi_endproc
	.fnend
                                        @ -- End function
	.p2align	2                               @ -- Begin function _ZN68_$LT$std..process..ExitCode$u20$as$u20$std..process..Termination$GT$6report17h754f37281d48e2e3E
	.type	_ZN68_$LT$std..process..ExitCode$u20$as$u20$std..process..Termination$GT$6report17h754f37281d48e2e3E,%function
	.code	32                              @ @"_ZN68_$LT$std..process..ExitCode$u20$as$u20$std..process..Termination$GT$6report17h754f37281d48e2e3E"
_ZN68_$LT$std..process..ExitCode$u20$as$u20$std..process..Termination$GT$6report17h754f37281d48e2e3E:
.Lfunc_begin11:
	.loc	8 2053 0                        @ /rustc/f1edd0429582dd29cccacaf50fd134b05593bd9c/library/std/src/process.rs:2053:0
	.fnstart
	.cfi_startproc
@ %bb.0:                                @ %start
	.save	{r11, lr}
	push	{r11, lr}
	.cfi_def_cfa_offset 8
	.cfi_offset lr, -4
	.cfi_offset r11, -8
	.pad	#8
	sub	sp, sp, #8
	.cfi_def_cfa_offset 16
	strb	r0, [sp, #7]
	add	r0, sp, #7
.Ltmp30:
	.loc	8 2054 9 prologue_end           @ /rustc/f1edd0429582dd29cccacaf50fd134b05593bd9c/library/std/src/process.rs:2054:9
	bl	_ZN3std3sys4unix7process14process_common8ExitCode6as_i3217hb58bd3de589f5a9bE
	.loc	8 2055 6                        @ /rustc/f1edd0429582dd29cccacaf50fd134b05593bd9c/library/std/src/process.rs:2055:6
	add	sp, sp, #8
	pop	{r11, lr}
	mov	pc, lr
.Ltmp31:
.Lfunc_end11:
	.size	_ZN68_$LT$std..process..ExitCode$u20$as$u20$std..process..Termination$GT$6report17h754f37281d48e2e3E, .Lfunc_end11-_ZN68_$LT$std..process..ExitCode$u20$as$u20$std..process..Termination$GT$6report17h754f37281d48e2e3E
	.cfi_endproc
	.fnend
                                        @ -- End function
	.p2align	2                               @ -- Begin function _ZN10helloworld4main17h2d296a82238a34ebE
	.type	_ZN10helloworld4main17h2d296a82238a34ebE,%function
	.code	32                              @ @_ZN10helloworld4main17h2d296a82238a34ebE
_ZN10helloworld4main17h2d296a82238a34ebE:
.Lfunc_begin12:
	.file	9 "/home/carlosterberg/helloworld" "src/main.rs"
	.loc	9 1 0                           @ src/main.rs:1:0
	.fnstart
	.cfi_startproc
@ %bb.0:                                @ %start
	.save	{r11, lr}
	push	{r11, lr}
	.cfi_def_cfa_offset 8
	.cfi_offset lr, -4
	.cfi_offset r11, -8
	.pad	#64
	sub	sp, sp, #64
	.cfi_def_cfa_offset 72
	mov	r0, #0
.Ltmp32:
	.loc	9 2 5 prologue_end              @ src/main.rs:2:5
	ldr	r1, .LCPI12_1
	mov	r2, #1
	mov	r3, #0
	str	r0, [sp, #8]
	str	r0, [sp, #12]
	ldr	r0, .LCPI12_0
	str	r0, [sp]
	add	r0, sp, #16
	bl	_ZN4core3fmt9Arguments6new_v117h3c95ffd7d6febbd6E
	add	r0, sp, #16
	bl	_ZN3std2io5stdio6_print17hd9c9dbd31aa97d70E
	.loc	9 3 2                           @ src/main.rs:3:2
	add	sp, sp, #64
	pop	{r11, lr}
	mov	pc, lr
.Ltmp33:
	.p2align	2
@ %bb.1:
	.loc	9 0 2 is_stmt 0                 @ src/main.rs:0:2
.LCPI12_0:
	.long	.Lalloc5
.LCPI12_1:
	.long	.Lalloc3
.Lfunc_end12:
	.size	_ZN10helloworld4main17h2d296a82238a34ebE, .Lfunc_end12-_ZN10helloworld4main17h2d296a82238a34ebE
	.cfi_endproc
	.fnend
                                        @ -- End function
	.globl	main                            @ -- Begin function main
	.p2align	2
	.type	main,%function
	.code	32                              @ @main
main:
.Lfunc_begin13:
	.fnstart
	.cfi_startproc
@ %bb.0:                                @ %top
	.save	{r11, lr}
	push	{r11, lr}
	.cfi_def_cfa_offset 8
	.cfi_offset lr, -4
	.cfi_offset r11, -8
	.pad	#8
	sub	sp, sp, #8
	.cfi_def_cfa_offset 16
	mov	r2, r0
	ldr	r0, .LCPI13_0
	asr	r3, r2, #31
	ldrb	r0, [r0]
	str	r1, [sp]
	ldr	r0, .LCPI13_1
	bl	_ZN3std2rt10lang_start17h95c4eabd28917cccE
	add	sp, sp, #8
	pop	{r11, lr}
	mov	pc, lr
	.p2align	2
@ %bb.1:
.LCPI13_0:
	.long	__rustc_debug_gdb_scripts_section__
.LCPI13_1:
	.long	_ZN10helloworld4main17h2d296a82238a34ebE
.Lfunc_end13:
	.size	main, .Lfunc_end13-main
	.cfi_endproc
	.fnend
                                        @ -- End function
	.type	.Lvtable.0,%object              @ @vtable.0
	.section	.rodata,"a",%progbits
	.p2align	3
.Lvtable.0:
	.long	_ZN4core3ptr85drop_in_place$LT$std..rt..lang_start$LT$$LP$$RP$$GT$..$u7b$$u7b$closure$u7d$$u7d$$GT$17h915f7ee027681576E
	.asciz	"\b\000\000\000\000\000\000\000\b\000\000\000\000\000\000"
	.long	_ZN4core3ops8function6FnOnce40call_once$u7b$$u7b$vtable.shim$u7d$$u7d$17h05d87b071da08e66E
	.long	_ZN3std2rt10lang_start28_$u7b$$u7b$closure$u7d$$u7d$17haf3fc2bcbbcd6de5E
	.long	_ZN3std2rt10lang_start28_$u7b$$u7b$closure$u7d$$u7d$17haf3fc2bcbbcd6de5E
	.size	.Lvtable.0, 32

	.type	.Lalloc33,%object               @ @alloc33
.Lalloc33:
	.ascii	"invalid args"
	.size	.Lalloc33, 12

	.type	.Lalloc34,%object               @ @alloc34
.Lalloc34:
	.ascii	"/rustc/f1edd0429582dd29cccacaf50fd134b05593bd9c/library/core/src/fmt/mod.rs"
	.size	.Lalloc34, 75

	.type	.Lalloc35,%object               @ @alloc35
	.p2align	3
.Lalloc35:
	.long	.Lalloc34
	.asciz	"K\000\000\000\000\000\000\000k\001\000\000\r\000\000"
	.size	.Lalloc35, 20

	.type	.Lalloc2,%object                @ @alloc2
.Lalloc2:
	.ascii	"Hello, world!\n"
	.size	.Lalloc2, 14

	.type	.Lalloc3,%object                @ @alloc3
	.p2align	3
.Lalloc3:
	.long	.Lalloc2
	.asciz	"\016\000\000\000\000\000\000"
	.size	.Lalloc3, 12

	.type	.Lalloc5,%object                @ @alloc5
	.p2align	3
.Lalloc5:
	.size	.Lalloc5, 0

	.type	__rustc_debug_gdb_scripts_section__,%object @ @__rustc_debug_gdb_scripts_section__
	.section	.debug_gdb_scripts,"aMS",%progbits,1,unique,1
	.weak	__rustc_debug_gdb_scripts_section__
__rustc_debug_gdb_scripts_section__:
	.asciz	"\001gdb_load_rust_pretty_printers.py"
	.size	__rustc_debug_gdb_scripts_section__, 34

	.section	".note.GNU-stack","",%progbits
	.eabi_attribute	30, 1	@ Tag_ABI_optimization_goals